(dp0
S'\xe2\x80\x9cnirbhaya\xe2\x80\x9d'
p1
S'nirbhaya'
p2
sS'equalfuture'
p3
S'equal future'
p4
sS'suspectibility'
p5
S'susceptibility'
p6
sS'dearme'
p7
S'dear me'
p8
sS'people\xe2\x80\x99'
p9
S'people'
p10
sS'oscars2016'
p11
S'oscars 2016'
p12
sS'childmarriages'
p13
S'child marriages'
p14
sS'beyou'
p15
S'be you'
p16
sS'ds'
p17
S'this'
p18
sS'naturaldisasters'
p19
S'natural disasters'
p20
sS'festivalspoojas'
p21
S'festivals poojas'
p22
sS'tech4safety'
p23
S'tech for safety'
p24
sS'envrionment'
p25
S'environment'
p26
sS'mappingtrends'
p27
S'mapping trends'
p28
sS'gympark'
p29
S'gympark'
p30
sS'pts'
p31
S'points'
p32
sS'citi'
p33
S'city'
p34
sS'childlabor'
p35
S'child labor'
p36
sS'silencehidesviolence'
p37
S'silence hides violence'
p38
sS'womenshould'
p39
S'women should'
p40
sS'agreedisagree'
p41
S'agree disagree'
p42
sS'clappcommunity'
p43
S'clapp community'
p44
sS'gendergap'
p45
S'gender gap'
p46
sS'nirbhayarapist'
p47
S'nirbhaya rapist'
p48
sS'wid'
p49
S'with'
p50
sS'seeinglikeafeminist'
p51
S'seeing like a feminist'
p52
sS'arewereallymovingforward'
p53
S'are we really moving forward'
p54
sS'kashmirismanipuris'
p55
S'kashmiris manipuris'
p56
sS'sexistderogatory'
p57
S'sexist derogatory'
p58
sS'\xe2\x80\x98discrimination'
p59
S'discrimination'
p60
sS'tl'
p61
S'tell'
p62
sS'cyberstalking'
p63
S'cyber stalking'
p64
sS'gendersensitisation'
p65
S'gender sensitisation'
p66
sS'lowcarbon'
p67
S'low carbon'
p68
sS'exhaustn'
p69
S'exhausting'
p70
sS'conciousness'
p71
S'consciousness'
p72
sS'womanity'
p73
S'womanity'
p74
sS'tweechats'
p75
S'tweet chats'
p76
sS'let\xe2\x80\x99'
p77
S'let'
p78
sS'wrld'
p79
S'world'
p80
sS'dey'
p81
S'day'
p82
sS'pmsisreal'
p83
S'pms is real'
p84
sS'makeitsafer'
p85
S'make it safer'
p86
sS'womenissues'
p87
S'women issues'
p88
sS'tolead'
p89
S'to lead'
p90
sS'predatorsrapists'
p91
S'predators rapists'
p92
sS'wich'
p93
S'which'
p94
sS'freedomofspeech'
p95
S'freedom of speech'
p96
sS'cyberviolence'
p97
S'cyber violence'
p98
sS'internationalwomensday'
p99
S'international womens day'
p100
sS'hyd'
p101
S'hyderabad'
p102
sS'gud'
p103
S'good'
p104
sS'oscarssowhite'
p105
S'oscars so white'
p106
sS'safetyinclimatechange'
p107
S'safety in climate change'
p108
sS'violenceagainstwomen'
p109
S'violence against women'
p110
sS'environnmental'
p111
S'environmental'
p112
sS'earth\xe2\x80\x99'
p113
S'earth'
p114
sS'havent'
p115
S'have not'
p116
sS'villagehttp'
p117
S'village '
p118
sS'viewssuggestions'
p119
S'view suggestions'
p120
sS'genderpaygap'
p121
S'gender pay gap'
p122
sS'girlpower'
p123
S'girl power'
p124
sS'nation\xe2\x80\x9d'
p125
S'nation'
p126
sS'wageparity'
p127
S'wage parity'
p128
sS'naturalresources'
p129
S'natural resources'
p130
sS'zerodiscrimination'
p131
S'zero discrimination'
p132
sS'tnx'
p133
S'thanks'
p134
sS'publicspace'
p135
S'public space'
p136
sS'educationisliberation'
p137
S'education is liberation'
p138
sS'men\xe2\x80\x99'
p139
S'men'
p140
sS'treesplants'
p141
S'trees plants'
p142
sS'humantrafficking'
p143
S'human trafficking'
p144
sS'widowsingle'
p145
S'widow single'
p146
sS'dadswithdaughters'
p147
S'dads with daughters'
p148
sS'womensafetyonline'
p149
S'women safety online'
p150
sS'sexratio'
p151
S'sex ratio'
p152
sS'2know'
p153
S'to know'
p154
sS'herez'
p155
S'here is'
p156
sS'publicoutrage'
p157
S'public outrage'
p158
sS'aylankurdi'
p159
S'aylan kurdi'
p160
sS'holiharassment'
p161
S'holi harassment'
p162
sS'usin'
p163
S'using'
p164
sS'indias'
p165
S'india'
p166
sS'\xe2\x80\x98bride'
p167
S'bride'
p168
sS'abt'
p169
S'about'
p170
sS'financialindependence'
p171
S'financial independence '
p172
sS'advrtisng'
p173
S'advertising'
p174
sS'fix\xe2\x80\x9d'
p175
S'fix'
p176
sS'sprd'
p177
S'spread'
p178
sS'gendersensitive'
p179
S'gender sensitive'
p180
sS'oftn'
p181
S'often'
p182
sS'womenspeakers'
p183
S'women speakers'
p184
sS'happydiwali'
p185
S'happy diwali'
p186
sS'audrelorde'
p187
S'audre lorde'
p188
sS'\xe2\x80\x98women'
p189
S'women'
p190
sS'glh67q0i'
p191
S' '
p192
sS'becoz'
p193
S'because'
p194
sS'ladydrivers'
p195
S'lady drivers'
p196
sS'shouldn'
p197
S'should not'
p198
sS'makingcitiessafer'
p199
S'making cities safer'
p200
sS'womenharassment'
p201
S'women harassment'
p202
sS'liveforanotherday'
p203
S'live for another day'
p204
sS'q5'
p205
S'question'
p206
sS'extrememeditationforrapists'
p207
S'extreme meditation for rapists'
p208
sS'unsafeforwomen'
p209
S'unsafe for women'
p210
sS'nites'
p211
S'nights'
p212
sS'breakthecurfew'
p213
S'break the curfew'
p214
sS'bangalore\xe2\x80\x99'
p215
S'bangalore'
p216
sS'citychauvinism'
p217
S'city chauvinism'
p218
sS'womenatwork'
p219
S'women at work'
p220
sS'twitteratiinterests'
p221
S'twitterati interests'
p222
sS'maliciousprosecution'
p223
S'malicious prosecution'
p224
sS'glympse'
p225
S'glimpse'
p226
sS'thatz'
p227
S'that is'
p228
sS'saferstreets'
p229
S'safer streets'
p230
sS'ecostovebiostove'
p231
S'eco stove bio stove'
p232
sS'illnessdiscomfort'
p233
S'illness discomfort'
p234
sS'equalwork'
p235
S'equal work'
p236
sS'rapportereur'
p237
S'rapporteur'
p238
sS'whatmustmendo'
p239
S'what must men do'
p240
sS'yesallmen'
p241
S'yes all men'
p242
sS'womensfreedom'
p243
S'women freedom'
p244
sS'3women'
p245
S'women'
p246
sS'womensonlycompartments'
p247
S'women only compartments'
p248
sS'nowreading'
p249
S'now reading'
p250
sS'twitterpoll'
p251
S'twitter poll'
p252
sS'firstlady'
p253
S'first lady'
p254
sS'particpants'
p255
S'participants'
p256
sS'publicsafety'
p257
S'public safety'
p258
sS'tools4protection'
p259
S'tools for protection'
p260
sS'convrsations'
p261
S'conversations'
p262
sS'envt'
p263
S'environment'
p264
sS'abhorrnt'
p265
S'abhorrent'
p266
sS'32stalked'
p267
S'32 stalked'
p268
sS've'
p269
S'have'
p270
sS'12april'
p271
S'12 april'
p272
sS'takeaction'
p273
S'take action'
p274
sS'delhipolice'
p275
S'delhi police'
p276
sS'grps'
p277
S'groups'
p278
sS'chk'
p279
S'checky'
p280
sS'generaliization'
p281
S'generalization'
p282
sS'zerotolerance'
p283
S'zero tolerance'
p284
sS'crowdsourcing'
p285
S'crowd sourcing'
p286
sS'dnt'
p287
S'do not'
p288
sS'safecitytweetchat'
p289
S'safecity tweet chat'
p290
sS'withmalala'
p291
S'with malala'
p292
sS'regardles'
p293
S'regardless'
p294
sS'trendmapping'
p295
S'trend mapping'
p296
sS'hv'
p297
S'have'
p298
sS'thru'
p299
S'through'
p300
sS'realitycheck'
p301
S'reality check'
p302
sS'safegoa'
p303
S'safe goa'
p304
sS'appsservices'
p305
S'apps services'
p306
sS'\xe2\x80\x98hope'
p307
S'hope'
p308
sS'classcaste'
p309
S'class caste'
p310
sS'warr'
p311
S'war'
p312
sS'meditationforrapists'
p313
S'meditation for rapists'
p314
sS'mysafecity'
p315
S'my safe city'
p316
sS'delhioddevenlogic'
p317
S'delhi odd even logic'
p318
sS'nogeneralisation'
p319
S'no generalisation'
p320
sS'livechat'
p321
S'live chat'
p322
sS'that\xe2\x80\x99'
p323
S'that'
p324
sS'donotrape'
p325
S'do not rape'
p326
sS'cliamteaction'
p327
S'climate action'
p328
sS'tweet2us'
p329
S'tweet to us'
p330
sS'hervoice'
p331
S'her voice'
p332
sS'myadvicetoayounggirl'
p333
S'my advice to a young girl'
p334
sS'friendshipday'
p335
S'friendship day'
p336
sS'mk'
p337
S'make'
p338
sS'\xe2\x80\x98male'
p339
S'male'
p340
sS'antifeminist'
p341
S'anti feminist'
p342
sS'del'
p343
S'delhi'
p344
sS'dem'
p345
S'them'
p346
sS'journos'
p347
S'journalists'
p348
sS'didnt'
p349
S'did not'
p350
sS'climatedisasters'
p351
S'climate disasters'
p352
sS'counsling'
p353
S'counselling'
p354
sS'literacyrate'
p355
S'literacy rate'
p356
sS'aftr'
p357
S'after'
p358
sS'december'
p359
S'december'
p360
sS'solotravel'
p361
S'solo travel'
p362
sS'safetyforwomen'
p363
S'safety for women'
p364
sS'lifesupport'
p365
S'life support'
p366
sS'involvd'
p367
S'involved'
p368
sS'personfriend'
p369
S'person friend'
p370
sS'2us'
p371
S'to us'
p372
sS'thoughtsexp'
p373
S'thoughts experience'
p374
sS'nocure'
p375
S'no cure'
p376
sS'shareyourstory'
p377
S'share your story'
p378
sS'stil'
p379
S'still'
p380
sS'endometrial'
p381
S'endometrial'
p382
sS'foodsecurtiy'
p383
S'food security'
p384
sS'safetipin'
p385
S'safety pin'
p386
sS'bodyacceptance'
p387
S'body acceptance'
p388
sS'womensrights'
p389
S'women rights'
p390
sS'pwrful'
p391
S'powerful'
p392
sS'cobrvsmwblle'
p393
S' '
p394
sS'sacredwives'
p395
S'sacred wives'
p396
sS'womendecisionmakers'
p397
S'women decision makers'
p398
sS'env'
p399
S'enironment'
p400
sS'\xe2\x80\x9a\xe2\x80\x94\xe2\x80\x9aunwomen'
p401
S'women'
p402
sS'moralpolice'
p403
S'moral police'
p404
sS'sdg5'
p405
S'sustainable development goals'
p406
sS'shouldnt'
p407
S'should not'
p408
sS'changingfaceofparenting'
p409
S'changing face of parenting'
p410
sS'womenslives'
p411
S'women lives'
p412
sS'sdg2'
p413
S'sustainable development goals'
p414
sS'fw'
p415
S'forward'
p416
sS'navigatingthecityasawoman'
p417
S'navigating the city as a woman'
p418
sS'lgbtq'
p419
S'lgbt '
p420
sS'fitnessinpublicspaces'
p421
S'fitness in public spaces'
p422
sS'riter'
p423
S'writer'
p424
sS'honorkillings'
p425
S'honor killings'
p426
sS'dne'
p427
S'done'
p428
sS'indianculture'
p429
S'indian culture'
p430
sS'fb'
p431
S'facebook'
p432
sS'\xe2\x80\x98best'
p433
S'best'
p434
sS'genderbasedviolence'
p435
S'gender based violence'
p436
sS'gurgoan'
p437
S'gurgaon'
p438
sS'friends\xe2\x80\x99'
p439
S'friends'
p440
sS'feminismfeminists'
p441
S'feminism feminists'
p442
sS'mak'
p443
S'make'
p444
sS'safecitycurator'
p445
S'safecity curator'
p446
sS'poorvulnerable'
p447
S'poor vulnerable'
p448
sS'sexselectiveabortion'
p449
S'sex selective abortion'
p450
sS'harrassed'
p451
S'harassed'
p452
sS'carbonfootprint'
p453
S'carbon footprint'
p454
sS'literacyispower'
p455
S'literacy is power'
p456
sS'schoolcollege'
p457
S'school college'
p458
sS'climateactionisnecessary'
p459
S'climate action is necessary'
p460
sS'newsoftheday'
p461
S'news of the day'
p462
sS'heatwaves'
p463
S'heat waves'
p464
sS'genderconvo'
p465
S'gender conversation'
p466
sS'womentravel'
p467
S'women travel'
p468
sS'endourpain'
p469
S'end our pain'
p470
sS'here\xe2\x80\x99'
p471
S'here'
p472
sS'womeninoscars'
p473
S'women in oscars'
p474
sS'wudnt'
p475
S'would not'
p476
sS'genderconversation'
p477
S'gender conversation'
p478
sS'ictforwomanity'
p479
S'ict for womanity'
p480
sS'designurcity'
p481
S'design your city'
p482
sS'ttp'
p483
S' '
p484
sS'zerodiscriminationday'
p485
S'zero discrimination day'
p486
sS'what\xe2\x80\x99'
p487
S'what'
p488
sS'economicequality'
p489
S'economic equality'
p490
sS'economicsforrapists'
p491
S'economics of rapists'
p492
sS'isnt'
p493
S'is not'
p494
sS'vith'
p495
S'with'
p496
sS'oddeven'
p497
S'odd even'
p498
sS'safercities'
p499
S'safer cities'
p500
sS'wud'
p501
S'would'
p502
sS'safecities'
p503
S'safe cities'
p504
sS'uve'
p505
S'you have'
p506
sS'sayfty'
p507
S'safety'
p508
sS'dont'
p509
S'do not'
p510
sS'bollywoodmorerespect'
p511
S'bollywood more respect'
p512
sS'wrd'
p513
S'word'
p514
sS'mustread'
p515
S'must read'
p516
sS'climatechange'
p517
S'climate change'
p518
sS'coments'
p519
S'comments'
p520
sS'socialmedia'
p521
S'social media'
p522
sS'selfworth'
p523
S'self worth'
p524
sS'buramaanoholihain'
p525
S'bura mano holi hai'
p526
sS'womenwomen'
p527
S'women women'
p528
sS'busestuks'
p529
S'buses truks'
p530
sS'differenc'
p531
S'difference'
p532
sS'developmentl'
p533
S'developmental'
p534
sS'delhi\xe2\x80\x99'
p535
S'delhi'
p536
sS'safecitiesbecause'
p537
S'safe cities because'
p538
sS'smallbusiness'
p539
S'small business'
p540
sS'cojsuwo7vvyi'
p541
S' '
p542
sS'inspiringteacher'
p543
S'inspiring teacher'
p544
sS'endvaw'
p545
S'end vaw'
p546
sS'bein'
p547
S'being'
p548
sS'world\xe2\x80\x99'
p549
S'world'
p550
sS'trackingsharing'
p551
S'tracking sharing'
p552
sS'dat'
p553
S'that'
p554
sS'genderatwork'
p555
S'gender at work'
p556
sS'sayitwithacondom'
p557
S'say it with a condom'
p558
sS'sexualharassmentatworkplace'
p559
S'sexual harassment at work place'
p560
sS'enjoymnt'
p561
S'enjoyment'
p562
sS'carbonemissions'
p563
S'carbon emissions'
p564
sS'ppl'
p565
S'people'
p566
sS'ther'
p567
S'there'
p568
sS'braindead'
p569
S'brain dead'
p570
sS'govts'
p571
S'governments'
p572
sS'themslves'
p573
S'themselves'
p574
sS'watershortages'
p575
S'water shortages'
p576
sS'everytime'
p577
S'everytime'
p578
sS'universalwomenshelpline'
p579
S'universal womens helpline'
p580
sS'didn'
p581
S'did not'
p582
sS'stuntwomen'
p583
S'stunt women'
p584
sS'tues'
p585
S'tuesday'
p586
sS'empowerwomen'
p587
S'empower women'
p588
sS'mrng'
p589
S'morning'
p590
sS'maledomination'
p591
S'male domination'
p592
sS'inspiringteachers'
p593
S'inspiring teachers'
p594
sS'girlsafety'
p595
S'girl safety'
p596
sS'readytoreport'
p597
S'ready to report'
p598
sS'mumbaihelplines'
p599
S'mumbai helplines'
p600
sS'coaflfo9khon'
p601
S' '
p602
sS'citylevel'
p603
S'city level'
p604
sS'bettr'
p605
S'better'
p606
sS'peeple'
p607
S'people'
p608
sS'consideratins'
p609
S'considerations'
p610
sS'peacebuilding'
p611
S'peace building'
p612
sS'startwiththeboys'
p613
S'start with the boys'
p614
sS'eg'
p615
S'example'
p616
sS'restrictns'
p617
S'restrictions'
p618
sS'moviesthatmatter'
p619
S'movies that matter'
p620
sS'childsafety'
p621
S'child safety'
p622
sS'femalefoeticide'
p623
S'female foeticide'
p624
sS'india\xe2\x80\x99'
p625
S'india'
p626
sS'\xe2\x80\x98smart'
p627
S'smart'
p628
sS'sdg7'
p629
S'sustainable development goals'
p630
sS'genderissuesinmedia'
p631
S'gender issues in media'
p632
sS'breakthebinary'
p633
S'break the binary'
p634
sS'2day'
p635
S'today'
p636
sS'socialbehavior'
p637
S'social behavior'
p638
sS'littlehumans'
p639
S'little humans'
p640
sS'womenswork'
p641
S'women work'
p642
sS'solutin'
p643
S'solution'
p644
sS'techforgood'
p645
S'tech for good'
p646
sS'safecityindia'
p647
S'safecity india'
p648
sS'goi'
p649
S'government of india'
p650
sS'happnd'
p651
S'happened'
p652
sS'rapists\xe2\x80\x9d'
p653
S'rapists'
p654
sS'dsnt'
p655
S'does not'
p656
sS'stopabuse'
p657
S'stop abuse'
p658
sS'patriachy'
p659
S'patriarchy'
p660
sS'qc'
p661
S'question'
p662
sS'2womens'
p663
S'2 women'
p664
sS'nite'
p665
S'night'
p666
sS'safecityinthenews'
p667
S'safecity in the news'
p668
sS'qe'
p669
S'question'
p670
sS'freedomofexpression'
p671
S'freedom of expression'
p672
sS'safetyinpublicspaces'
p673
S'safety in public spaces'
p674
sS'shoutyourabortion'
p675
S'shout your abortion'
p676
sS'nationalengineersweek'
p677
S'national engineers week'
p678
sS'qg'
p679
S'question'
p680
sS'climatechanges'
p681
S'climate changes'
p682
sS'\xe2\x80\x9ccourt'
p683
S'court'
p684
sS'tweetathons'
p685
S'tweetathon'
p686
sS'intersex'
p687
S'inter sex'
p688
sS'tomaskucerovsky'
p689
S'tomas kucerovsky'
p690
sS'thingswomenfriendshear'
p691
S'things women friends hear'
p692
sS'shud'
p693
S'should'
p694
sS'storiesexperiences'
p695
S'stories experiences'
p696
sS'womenlead'
p697
S'women lead'
p698
sS'imptt'
p699
S'important'
p700
sS'dayafter'
p701
S'day after'
p702
sS'org'
p703
S'organisation'
p704
sS'emphasing'
p705
S'emphasising'
p706
sS'safetysurvey'
p707
S'safety survey'
p708
sS'cloth4work'
p709
S'cloth for work'
p710
sS'husbandsdads'
p711
S'husband dad'
p712
sS'empoweringwomen'
p713
S'empowering women'
p714
sS'girlempowerment'
p715
S'girl empowerment'
p716
sS'imprted'
p717
S'imported'
p718
sS'couldn'
p719
S'could not'
p720
sS'safty'
p721
S'safety'
p722
sS'youth4genderequality'
p723
S'youth for gender equality'
p724
sS'aborttheshame'
p725
S'abort the shame'
p726
sS'enviromnment'
p727
S'environment'
p728
sS'16daysofactivismwithsafecity'
p729
S'16 days of activism with safecity'
p730
sS'paythewomen'
p731
S'pay the women'
p732
sS'classmatesstrangers'
p733
S'classmates strangers'
p734
sS'safetyincabs'
p735
S'safety in cabs'
p736
sS'educateall'
p737
S'educate all'
p738
sS'isn'
p739
S'is not'
p740
sS'favouriting'
p741
S'favourite'
p742
sS'busines'
p743
S'business'
p744
sS'didn\xe2\x80\x99'
p745
S'did not'
p746
sS'womeninbusiness'
p747
S'women in business'
p748
sS'darklonely'
p749
S'dark lonely'
p750
sS'clancaste'
p751
S'clan caste'
p752
sS'chronicpain'
p753
S'chronic pain'
p754
sS'evry'
p755
S'every'
p756
sS'genderviolence'
p757
S'gender violence'
p758
sS'adaptatn'
p759
S'adaptation'
p760
sS'wasn'
p761
S'was not'
p762
sS'patriarchyaffectsmen'
p763
S'patriarchy affects men'
p764
sS'\xe2\x80\x9cdon\xe2\x80\x99'
p765
S'do not'
p766
sS'solutns'
p767
S'solutions'
p768
sS'cyclelanes'
p769
S'cycle lanes'
p770
sS'safetipinapp'
p771
S'safety pin app'
p772
sS'spred'
p773
S'spread'
p774
sS'schoolscolleges'
p775
S'schools colleges'
p776
sS'rapeculture'
p777
S'rape culture'
p778
sS'womenssafetyonline'
p779
S'women safety online'
p780
sS'cognisable'
p781
S'cognisable'
p782
sS'femaleinfanticide'
p783
S'female fanticide'
p784
sS'gangrape'
p785
S'gang rape'
p786
sS'safetyproducts'
p787
S'safety products'
p788
sS'indianfeminism'
p789
S'indian feminism'
p790
sS'menstruationnation'
p791
S'menstruation nation'
p792
sS'toiletmatters'
p793
S'toilet matters'
p794
sS'mumbaipolice'
p795
S'mumbai police'
p796
sS'bullyingpreventionmonth'
p797
S'bullying prevention month'
p798
sS'internationalwomenday'
p799
S'international women day'
p800
sS'onlineonmobile'
p801
S'online mobile'
p802
sS'safecitiesindex'
p803
S'safe cities index'
p804
sS'\xe2\x80\x98crucial\xe2\x80\x99'
p805
S'crucial'
p806
sS'stemwomen'
p807
S'stem women'
p808
sS'eqn'
p809
S'equation'
p810
sS'endrapeculture'
p811
S'end rape culture'
p812
sS'you\xe2\x80\x99'
p813
S'you'
p814
sS'man\xe2\x80\x99'
p815
S'man'
p816
sS'shetty\xe2\x80\x99'
p817
S'shetty'
p818
sS'idntifies'
p819
S'identifies'
p820
sS'shld'
p821
S'should'
p822
sS'wars\xe2\x80\x99'
p823
S'wars'
p824
sS'leanin'
p825
S'leaning'
p826
sS'weight\xe2\x80\x9d'
p827
S'weight'
p828
sS'mailtonidhi'
p829
S'mail to nidhi'
p830
sS'havng'
p831
S'having'
p832
sS'welcum'
p833
S'welcome'
p834
sS'deconstructingpatriarchy'
p835
S'deconstructing patriarchy'
p836
sS'failure\xe2\x80\x99'
p837
S'failure'
p838
sS'irom'
p839
S' '
p840
sS'frameherright'
p841
S'frame her right'
p842
sS'apparantly'
p843
S'apparently'
p844
sS'orgs'
p845
S'organisations'
p846
sS'sexualabuse'
p847
S'sexual abuse'
p848
sS'stopmensabuse'
p849
S'stop men abuse'
p850
sS'autorickshaws'
p851
S'auto rickshaws'
p852
sS'twrds'
p853
S'towards'
p854
sS'womenhealth'
p855
S'women health'
p856
sS'suzettejordon'
p857
S'suzette jordon'
p858
sS'aren\xe2\x80\x99'
p859
S'are not'
p860
sS'\xe2\x80\x98lower'
p861
S'lower'
p862
sS'feministbollywoodsongs'
p863
S'feminist bollywood songs'
p864
sS'meatban'
p865
S'meat ban'
p866
sS'stopcampusrapes'
p867
S'stop campus rapes'
p868
sS'genderwagegap'
p869
S'gender wage gap'
p870
sS'it\xe2\x80\x99'
p871
S'it'
p872
sS'girlscan'
p873
S'girls can'
p874
sS'readencounter'
p875
S'read encounter'
p876
sS'concernd'
p877
S'concerned'
p878
sS'urbandevelopment'
p879
S'urban development'
p880
sS'naturaldisaster'
p881
S'natural disaster'
p882
sS'gendermatters'
p883
S'gender matters'
p884
sS'lik'
p885
S'like'
p886
sS'girls\xe2\x80\x99'
p887
S'girls'
p888
sS'sexismsexual'
p889
S'sexism sexual '
p890
sS'happynewyear'
p891
S'happy new year'
p892
sS'planningexecuting'
p893
S'planning executing'
p894
sS'femvertising'
p895
S'female advertising'
p896
sS'abortthestigma'
p897
S'abort the stigma'
p898
sS'womennotobjects'
p899
S'women not objects'
p900
sS'whn'
p901
S'when'
p902
sS'yesallwomen'
p903
S'yes all women'
p904
sS'pmsing'
p905
S'pmsing'
p906
sS'anythn'
p907
S'anything'
p908
sS'wht'
p909
S'what'
p910
sS'everydaysexism'
p911
S'everyday sexism'
p912
sS'womaninleadership'
p913
S'woman in leadership'
p914
sS'internationaldayofthegirl'
p915
S'international day of the girl'
p916
sS'raiseurvoice'
p917
S'raise your voice'
p918
sS'combatingclimatechange'
p919
S'combating climate change'
p920
sS'represen'
p921
S'reprsent'
p922
sS'henious'
p923
S'heinous'
p924
sS'\xe2\x80\x98project'
p925
S'project'
p926
sS'womenhelpline'
p927
S'women helpline'
p928
sS'incase'
p929
S'in case'
p930
sS'notsorry'
p931
S'not sorry'
p932
sS'travellng'
p933
S'travelling'
p934
sS'mustwatch'
p935
S'must watch'
p936
sS'tomo'
p937
S'tomorrow'
p938
sS'potrayal'
p939
S'portrayal'
p940
sS'cybersexualharassment'
p941
S'cyber sexual harassment'
p942
sS'trailblaze'
p943
S'trail blaze'
p944
sS'scavenger\xe2\x80\x99'
p945
S'scaveneger'
p946
sS'mre'
p947
S'more'
p948
sS'soln'
p949
S'solution'
p950
sS'metroslocal'
p951
S'metros local'
p952
sS'girleducation'
p953
S'girl education'
p954
sS'staybrave'
p955
S'stay brave'
p956
sS'raisingkids'
p957
S'raising kids'
p958
sS'2station'
p959
S'two station'
p960
sS'rapemuktbharat'
p961
S'rape mukt bharat'
p962
sS'don\xe2\x80\x99ts\xe2\x80\x99'
p963
S'do not'
p964
sS'byond'
p965
S'beyond'
p966
sS'fone'
p967
S'phone'
p968
sS'endchildmarriage'
p969
S'end child marriage'
p970
sS'expert\xe2\x80\x99'
p971
S'expert'
p972
sS'convos'
p973
S'conversations'
p974
sS'everydayfeminism'
p975
S'everyday feminism'
p976
sS'\xe2\x80\x9caim'
p977
S'aim'
p978
sS'genderconversations'
p979
S'gender conversations'
p980
sS'domesticviolence'
p981
S'domestic violence'
p982
sS'humananimal'
p983
S'human animal'
p984
sS'denialdoesnthelp'
p985
S'denial does not help'
p986
sS'smartfone'
p987
S'smartphone'
p988
sS'womenchildren'
p989
S'women children'
p990
sS'stopstreetharassment'
p991
S'stop street harassment'
p992
sS'q1'
p993
S'question'
p994
sS'safetysprawls'
p995
S'safety sprawls'
p996
sS'q3'
p997
S'question'
p998
sS'q2'
p999
S'question'
p1000
sS'sustainabledevelopment'
p1001
S'sustainable development'
p1002
sS'q4'
p1003
S'question'
p1004
sS'q7'
p1005
S'question'
p1006
sS'q6'
p1007
S'question'
p1008
sS'q8'
p1009
g680
sS'media\xe2\x80\x99'
p1010
S'media'
p1011
sS'letstalk'
p1012
S'let us talk'
p1013
sS'risewithtwitter'
p1014
S'rise with twitter'
p1015
sS'crimemap'
p1016
S'crime map'
p1017
sS'ques'
p1018
g680
sS'wrking'
p1019
S'working'
p1020
sS'welome'
p1021
S'welcome'
p1022
sS'sexualharassmentatwork'
p1023
S'sexual harassment at work'
p1024
sS'swith'
p1025
S'with'
p1026
sS'plaguedwith'
p1027
S'plagued with'
p1028
sS'misreprsentatn'
p1029
S'misrepresentation'
p1030
sS'environmntl'
p1031
S'environmental'
p1032
sS'womenasafetyonline'
p1033
S'women safety online'
p1034
sS'sociologyofrape'
p1035
S'sociology of rape'
p1036
sS'\xe2\x80\x9csmart'
p1037
S'smart'
p1038
sS'2wads'
p1039
S'towards'
p1040
sS'fight4genderequalityinplacesofreligiousworship'
p1041
S'fight for gender equality in places of religious worship'
p1042
sS'safepublicspacesforwomen'
p1043
S'safe public spaces for women'
p1044
sS'consideratn'
p1045
S'consideration'
p1046
sS'increas'
p1047
S'increase'
p1048
sS'nepalearthquake'
p1049
S'nepal earthquake'
p1050
sS'fatshaming'
p1051
S'fat shaming'
p1052
sS'impossbl'
p1053
S'impossible'
p1054
sS'qs'
p1055
S'question'
p1056
sS'mobilzation'
p1057
S'mobilization'
p1058
sS'genderbasedcrime'
p1059
S'gender based crime'
p1060
sS'trap\xe2\x80\x99'
p1061
S'trap'
p1062
sS'difference\xe2\x80\x9d'
p1063
S'difference'
p1064
sS'chronicdepression'
p1065
S'chronic depression'
p1066
sS'povertydependence'
p1067
S'poverty dependence'
p1068
sS'qa'
p1069
S'question'
p1070
sS'selfdefense'
p1071
S'self defense'
p1072
sS'supremecourt'
p1073
S'supreme court'
p1074
sS'qb'
p1075
S'question'
p1076
sS'shd'
p1077
S'should'
p1078
sS'qd'
p1079
S'question'
p1080
sS'infosafecity'
p1081
S'information safecity'
p1082
sS'qf'
p1083
S'question'
p1084
sS'days\xe2\x80\x9d'
p1085
S'days'
p1086
sS'safepublicspaces'
p1087
S'safe public spaces'
p1088
sS'taxiauto'
p1089
S'taxi auto'
p1090
sS'tkng'
p1091
S'taking'
p1092
sS'staysafe'
p1093
S'stay safe'
p1094
sS'reproductiverights'
p1095
S'reproductive rights'
p1096
sS'womenempoerment'
p1097
S'women empowerment'
p1098
sS'legalrights'
p1099
S'legal rights'
p1100
sS'sustainableagriculture'
p1101
S'sustainable agriculture'
p1102
sS'genderequality'
p1103
S'gender equality'
p1104
sS'segregatng'
p1105
S'segregating'
p1106
sS'iaminforsafecity'
p1107
S'i am in for safecity'
p1108
sS'city8'
p1109
S'city'
p1110
sS'oddeven2'
p1111
S'odd even 2'
p1112
sS'connectkaro'
p1113
S'connect karo'
p1114
sS'gven'
p1115
S'given'
p1116
sS'patrirchal'
p1117
S'patriarchal'
p1118
sS'safetyfirst'
p1119
S'safety first'
p1120
sS'infrastructure\xe2\x80\x9d'
p1121
S'infrastructure'
p1122
sS'equalopportunity'
p1123
S'equal opportunity'
p1124
sS'equalpay'
p1125
S'equal pay'
p1126
sS'honorkilling'
p1127
S'honor killing'
p1128
sS'bth'
p1129
S'both'
p1130
sS'trysucceed'
p1131
S'try succeed'
p1132
sS'womenmakingfilms'
p1133
S'women making films'
p1134
sS'energycarbon'
p1135
S'energy carbon'
p1136
sS'\xe2\x80\x9cbringing'
p1137
S'bringing'
p1138
sS'misfit\xe2\x80\x99'
p1139
S'misfit'
p1140
sS'hastags'
p1141
S'hashtags'
p1142
sS'coiowyzvqop1'
p1143
S' '
p1144
sS'thurs'
p1145
S'thursday'
p1146
sS'stopsh'
p1147
S'stop sexual harassment'
p1148
sS'safecyclesdg11'
p1149
S'safe cycles sdg11'
p1150
sS'womenwriting'
p1151
S'women writing'
p1152
sS'breakingthebinary'
p1153
S'breaking the binary'
p1154
sS'environment\xe2\x80\x9d'
p1155
S'environment'
p1156
sS'onlineharassment'
p1157
S'online harassment'
p1158
sS'nobelpeace'
p1159
S'nobel peace'
p1160
sS'can\xe2\x80\x99'
p1161
S'can'
p1162
sS'mumbailocal'
p1163
S'mumbai local'
p1164
sS'banthecreep'
p1165
S'ban the creep'
p1166
sS'spotlighthealth'
p1167
S'spotlight health'
p1168
sS'endometriosisawareness'
p1169
S'endometriosis awareness'
p1170
sS'blore'
p1171
S'bangalore'
p1172
sS'witnessprotection'
p1173
S'witness protection'
p1174
sS'citysafe'
p1175
S'city safe'
p1176
sS'\xe2\x80\x9cshut'
p1177
S'shut'
p1178
sS'menvswomen'
p1179
S'men vs women'
p1180
sS'\xe2\x80\x98gossip'
p1181
S'gossip'
p1182
sS'equalpayforequalwork'
p1183
S'equal pay for equal work'
p1184
sS'ws'
p1185
S'was'
p1186
sS'scavangers'
p1187
S'scavengers'
p1188
sS'counsellng'
p1189
S'counselling'
p1190
sS'humanrights'
p1191
S'human rights'
p1192
sS'republicdayparade'
p1193
S'republic day parade'
p1194
sS'teengirl'
p1195
S'teen girl'
p1196
sS'facebooktwitter'
p1197
S'facebook twitter'
p1198
sS'coz'
p1199
S'because'
p1200
sS'womenrights'
p1201
S'women rights'
p1202
sS'lanesbikewayscycleways'
p1203
S'lanes bikeways cycleways'
p1204
sS'cementconcrete'
p1205
S'cement concrete'
p1206
sS'spousalabuse'
p1207
S'spousal abuse'
p1208
sS'abuseculture'
p1209
S'abuse culture'
p1210
sS'awarness'
p1211
S'awareness'
p1212
sS'decison'
p1213
S'decision'
p1214
sS'momentofpride'
p1215
S'moment of pride'
p1216
sS'\xe2\x80\x98bikeability'
p1217
S'bike ability'
p1218
sS'writewithus'
p1219
S'write with us'
p1220
sS'getng'
p1221
S'getting'
p1222
sS'goalstargets'
p1223
S'goals targets'
p1224
sS'selfdefence'
p1225
S'self defence'
p1226
sS'crimesagainstwomen'
p1227
S'crimes against women'
p1228
sS'hve'
p1229
S'have'
p1230
sS'makin'
p1231
S'making'
p1232
sS'considera'
p1233
S'consider'
p1234
sS'safecitychat'
p1235
S'safecity chat'
p1236
sS'helllo'
p1237
S'hello'
p1238
sS'workplacewellbeing'
p1239
S'workplace well being '
p1240
sS'kiranmanral'
p1241
S'kiran manral'
p1242
sS'diff'
p1243
S'different'
p1244
sS'how2avoid'
p1245
S'how to avoid'
p1246
sS'womenleaders'
p1247
S'women leaders'
p1248
sS'woman\xe2\x80\x99'
p1249
S'woman'
p1250
sS'ideasfestival'
p1251
S'ideas festival'
p1252
sS'oscar\xe2\x80\x99'
p1253
S'oscar'
p1254
sS'maritalrape'
p1255
S'marital rape'
p1256
sS'fri'
p1257
S'friday'
p1258
sS'frm'
p1259
S'from '
p1260
sS'standard\xe2\x80\x94'
p1261
S'standard'
p1262
sS'phailin'
p1263
S'failing'
p1264
sS'genderdiscrimination'
p1265
S'gender discrimination'
p1266
sS'victimblaming'
p1267
S'victim blaming'
p1268
sS'extrememeditation'
p1269
S'extreme meditation'
p1270
sS'hatpins'
p1271
S'hat pins'
p1272
sS'teachng'
p1273
S'teaching'
p1274
sS'prefr'
p1275
S'prefer'
p1276
sS'daughter\xe2\x80\x9d'
p1277
S'daughter'
p1278
sS'citytown'
p1279
S'city town'
p1280
sS'resistrapeculture'
p1281
S'resist rape culture'
p1282
sS'womesafety'
p1283
S'women safety'
p1284
sS'\xe2\x80\x9close'
p1285
S'lose'
p1286
sS'presidentialcandidates'
p1287
S'presidential candidates'
p1288
sS'executiveroles'
p1289
S'executive roles'
p1290
sS'safetyapps'
p1291
S'safety apps'
p1292
sS'hota\xe2\x80\x9d'
p1293
S'hota'
p1294
sS'fitnessforwomen'
p1295
S'fitness for women'
p1296
sS'bromancebrocode'
p1297
S'bromance brocode'
p1298
sS'stopcampusrape'
p1299
S'stop campus rape'
p1300
sS'moralpolicing'
p1301
S'moral policing'
p1302
sS'womenstruation'
p1303
S'menstruation'
p1304
sS'\xe2\x80\x98strong'
p1305
S'strong'
p1306
sS'education\xe2\x80\x9d'
p1307
S'education'
p1308
sS'painmanagement'
p1309
S'pain management'
p1310
sS'standardsofbeauty'
p1311
S'standards of beauty'
p1312
sS'destinatn'
p1313
S'destination'
p1314
sS'therepists'
p1315
S'therapists'
p1316
sS'unfamilar'
p1317
S'unfamiliar'
p1318
sS'womenreading'
p1319
S'women reading'
p1320
sS'ain'
p1321
S'is not'
p1322
sS'drivingatnight'
p1323
S'driving at night'
p1324
sS'bitch\xe2\x80\x9d'
p1325
S'bitch'
p1326
sS'cancelled'
p1327
S'canceled'
p1328
sS'preventabuse'
p1329
S'prevent abuse'
p1330
sS'asks\xe2\x80\x9c'
p1331
S'asks'
p1332
sS'gymsyogaspinningzumba'
p1333
S'gyms yoga spinning zumba'
p1334
sS'happytobleed'
p1335
S'happy to bleed'
p1336
sS'ridesafe'
p1337
S'ride safe'
p1338
sS'usefulinfo'
p1339
S'useful info'
p1340
sS'composerwriter'
p1341
S'composer writer'
p1342
sS'femenisracist'
p1343
S'femen is racist'
p1344
sS'52filmsbywomen'
p1345
S'52 films by women'
p1346
sS'safecityelsamariedsilva'
p1347
S'safecity elsamariedsilva'
p1348
sS'crossin'
p1349
S'crossing'
p1350
sS'ie'
p1351
S'that it'
p1352
sS'isn\xe2\x80\x99'
p1353
S'is not'
p1354
sS'againstwomen'
p1355
S'against women'
p1356
sS'wastemanagement'
p1357
S'waste management'
p1358
sS'womenunsafe'
p1359
S'women unsafe'
p1360
sS'itsoktobeafeminist'
p1361
S'it is ok to be a feminist'
p1362
sS'eductn'
p1363
S'education'
p1364
sS'workingclass'
p1365
S'working class'
p1366
sS'some1'
p1367
S'someone'
p1368
sS'womanhater'
p1369
S'woman hater'
p1370
sS'committments'
p1371
S'commitments '
p1372
sS'holi2016'
p1373
S'holi 2016'
p1374
sS'saftychat'
p1375
S'safety chat'
p1376
sS'urself'
p1377
S'yourself'
p1378
sS'mor'
p1379
S'more'
p1380
sS'retweeting'
p1381
S'retweet'
p1382
sS'dan'
p1383
S'than'
p1384
sS'unitedstates'
p1385
S'united states'
p1386
sS'cybersafety'
p1387
S'cyber safety'
p1388
sS'http'
p1389
S' '
p1390
sS'surveillanc'
p1391
S'surveillance'
p1392
sS'cities\xe2\x80\x99'
p1393
S'cities'
p1394
sS'don\xe2\x80\x99'
p1395
S'do not'
p1396
sS'commuterstravellers'
p1397
S'commuters travellers'
p1398
sS'couldve'
p1399
S'could have'
p1400
sS'womenempowerment'
p1401
S'women empowerment'
p1402
sS'rightslaw'
p1403
S'rights law'
p1404
sS'weekendwisdom'
p1405
S'weekend wisdom'
p1406
sS'women\xe2\x80\x99'
p1407
S'women'
p1408
sS'kno'
p1409
S'know'
p1410
sS'humanitywashedashore'
p1411
S'humanity washed ashore'
p1412
sS'genderlogindia'
p1413
S'gender log india'
p1414
sS'howz'
p1415
S'how is '
p1416
sS'tht'
p1417
S'that'
p1418
sS'develpmnt'
p1419
S'development'
p1420
sS'thr'
p1421
S'there'
p1422
sS'familyclan'
p1423
S'family clan'
p1424
sS'programe'
p1425
S'programme'
p1426
sS'performcope'
p1427
S'perform cope'
p1428
sS'thk'
p1429
S'thanks'
p1430
sS'delhibycycle'
p1431
S'delhi bicycle'
p1432
sS'knw'
p1433
S'know'
p1434
sS'despitebeingawoman'
p1435
S'despite being a woman'
p1436
sS'womensafety'
p1437
S'women safety'
p1438
sS'i\xe2\x80\x99m'
p1439
S'i am'
p1440
sS'bulliesout'
p1441
S'bullies out'
p1442
sS'positivemonday'
p1443
S'positive monday'
p1444
sS'changescampaigns'
p1445
S'changes campaigns'
p1446
sS'parisagreement'
p1447
S'paris agreement'
p1448
sS'womeninunusualjobs'
p1449
S'women in unusual jobs'
p1450
sS'womenssafety'
p1451
S'women safety'
p1452
sS'mgmt'
p1453
S'management'
p1454
sS'dalithistorymonth'
p1455
S'dalit story month'
p1456
sS'politics101'
p1457
S'politics 101'
p1458
sS'streetlighting'
p1459
S'street lighting'
p1460
sS'cyberbullying'
p1461
S'cyber bullying'
p1462
sS'yesequality'
p1463
S'yes equality'
p1464
sS'womeninpolitics'
p1465
S'women in politics'
p1466
sS'a7'
p1467
S'answer'
p1468
sS'girlsatdhabas'
p1469
S'girls at dhabas'
p1470
sS'parkmeinpda'
p1471
S'park me in pda'
p1472
sS'booksuggestion'
p1473
S'book suggestion'
p1474
sS'tiphead\xe2\x80\x99'
p1475
S'tiphead'
p1476
sS'itsonus'
p1477
S'it is on us'
p1478
sS'freedomofexpression\xe2\x80\x99'
p1479
S'freedom of expression'
p1480
sS'saltandpepper'
p1481
S'salt and pepper'
p1482
sS'internationalmensday'
p1483
S'international mens day'
p1484
sS'waterforwomen'
p1485
S'water for women'
p1486
sS'wel'
p1487
S'well'
p1488
sS'bicycleschangelives'
p1489
S'bicycles change lives'
p1490
sS'indianwomen'
p1491
S'indian women'
p1492
sS'cybersafetyweek'
p1493
S'cyber safety week'
p1494
sS'distractinglysexy'
p1495
S'distractingly sexy'
p1496
sS'womanspeaker'
p1497
S'woman speaker'
p1498
sS'sexualharassment'
p1499
S'sexual harassment'
p1500
sS'hav'
p1501
S'have'
p1502
sS'safertogether'
p1503
S'safer together'
p1504
sS'\xe2\x80\x9cforget'
p1505
S'forget'
p1506
sS'globalwarming'
p1507
S'global warming '
p1508
sS'economicsofrape'
p1509
S'economics of rape'
p1510
sS'matter\xe2\x80\x9d'
p1511
S'matter'
p1512
sS'kitestring'
p1513
S'kite string'
p1514
sS'girlchild'
p1515
S'girl child'
p1516
sS'radiotvnews'
p1517
S'radio tv news'
p1518
sS'womenshistory'
p1519
S'women history'
p1520
sS'allwomen'
p1521
S'all women'
p1522
sS'tmrw'
p1523
S'tomorrow'
p1524
sS'holisafety'
p1525
S'holi safety'
p1526
sS'oders'
p1527
S'others'
p1528
sS'porperty'
p1529
S'property'
p1530
sS'solotrip'
p1531
S'solo trip'
p1532
sS'16daysofactivism'
p1533
S'16 days of activism'
p1534
sS'letschat'
p1535
S'let us chat'
p1536
sS'happyunhappy'
p1537
S'happy unhappy'
p1538
sS'pondr'
p1539
S'ponder'
p1540
sS'menstrualhygiene'
p1541
S'menstrual hygiene'
p1542
sS'overhaulimprove'
p1543
S'overhaul improve'
p1544
sS'talkingwall'
p1545
S'talking wall'
p1546
sS'realwomen'
p1547
S'real women'
p1548
sS'norhteastregion'
p1549
S'north east region'
p1550
sS'genderminorities'
p1551
S'gender minorities'
p1552
sS'bringourgirlsback'
p1553
S'bring our girls back'
p1554
sS'letthewomenfight'
p1555
S'let the women fight'
p1556
sS'any1'
p1557
S'anyone'
p1558
sS'sayftychat'
p1559
S'safety chat'
p1560
sS'followerssubordinates'
p1561
S'followers subordinates'
p1562
sS'urbanmodern'
p1563
S'urban modern'
p1564
sS'a2\xe2\x80\xa6'
p1565
S'answer'
p1566
sS'ffwomensafety'
p1567
S'women safety'
p1568
sS'specialattention'
p1569
S'special attention'
p1570
sS'sustainbl'
p1571
S'sustainable'
p1572
sS'bosses\xe2\x80\x9d'
p1573
S'bosses'
p1574
sS'socialmediasociety'
p1575
S'social media society'
p1576
sS'politicsofhope'
p1577
S'politics of hope'
p1578
sS'maternityleave'
p1579
S'maternity leave'
p1580
sS'womentransform'
p1581
S'women transform'
p1582
sS'2how'
p1583
S'how'
p1584
sS'slums\xe2\x80\x99'
p1585
S'slums'
p1586
sS'campaignsworkshops'
p1587
S'campaigns workshops'
p1588
sS'b4'
p1589
S'before'
p1590
sS'osacr2016'
p1591
S'oscar 2016'
p1592
sS'ovr'
p1593
S'over'
p1594
sS'cophfsbkzu4x'
p1595
S' '
p1596
sS'cccessibility'
p1597
S'accessibility'
p1598
sS'womeninleadership'
p1599
S'women in leadership'
p1600
sS'dalitweb'
p1601
S'dalit web'
p1602
sS'genderequity'
p1603
S'gender equity'
p1604
sS'safetyapp'
p1605
S'safety app'
p1606
sS'slipperyslope'
p1607
S'slippery slope'
p1608
sS'orangetheworld'
p1609
S'orange the world'
p1610
sS'worldtoiletday'
p1611
S'world toilet day'
p1612
sS'empowrmnt'
p1613
S'empowerment'
p1614
sS'a6'
p1615
S'answer'
p1616
sS'concerntrolling'
p1617
S'concern trolling'
p1618
sS'theredelephnt'
p1619
S'the red elephant'
p1620
sS'comdy'
p1621
S'comedy'
p1622
sS'notallmen'
p1623
S'not all men'
p1624
sS'tweetiques'
p1625
S'tweet questions'
p1626
sS'sexualorientation'
p1627
S'sexual orientation'
p1628
sS'motherdaughter'
p1629
S'mother daughter'
p1630
sS'pls'
p1631
S'please'
p1632
sS'whyloiter'
p1633
S'why loiter'
p1634
sS'qns'
p1635
S'question'
p1636
sS'sheteams'
p1637
S'she teams'
p1638
sS'bn'
p1639
S'been'
p1640
sS'citizns'
p1641
S'citizens'
p1642
sS'romancerelationships'
p1643
S'romance relationships'
p1644
sS'plz'
p1645
S'please'
p1646
sS'bt'
p1647
S'but'
p1648
sS'lastq'
p1649
S'question'
p1650
sS'mondaymotivation'
p1651
S'monday motivation'
p1652
sS'oscarssomale'
p1653
S'oscars so male'
p1654
sS'jst'
p1655
S'just'
p1656
sS'indianworkforce'
p1657
S'indian work force'
p1658
sS'victimshaming'
p1659
S'victim shaming'
p1660
sS'carbreakdown'
p1661
S'car breakdown'
p1662
sS'nded'
p1663
S'ended'
p1664
sS'publicspaces'
p1665
S'public spaces'
p1666
sS'publictransport'
p1667
S'public transport'
p1668
sS'perspectie'
p1669
S'perspective'
p1670
sS'officegoals'
p1671
S'office goals'
p1672
sS'genderissues'
p1673
S'gender issues'
p1674
sS'cojyi0yvrosj'
p1675
S' '
p1676
sS'foodsecurity'
p1677
S'food security'
p1678
sS'shoppin'
p1679
S'shopping'
p1680
sS'ffgenderequality'
p1681
S'gender equality'
p1682
sS'physicalviolence'
p1683
S'physical violence'
p1684
sS'bodyautonomy'
p1685
S'body autonomy'
p1686
sS'mst'
p1687
S'must'
p1688
sS'every1'
p1689
S'everyone'
p1690
sS'eval'
p1691
S'evaluate'
p1692
sS'masoom\xe2\x80\x99'
p1693
S'masoom'
p1694
sS'sexisminpopculture'
p1695
S'sexism in pop culture'
p1696
sS'climatechangeeffects'
p1697
S'climate change effects'
p1698
sS'virtualcontrol'
p1699
S'virtual control'
p1700
sS'inbreakthrough'
p1701
S'in break through'
p1702
sS'hapy'
p1703
S'happy'
p1704
sS'urbanaffluent'
p1705
S'urban affluent'
p1706
sS'latenight'
p1707
S'late night'
p1708
sS'doesnt'
p1709
S'does not'
p1710
sS'breakingstereotypes'
p1711
S'breaking stereotypes'
p1712
sS'womensprogress2015'
p1713
S'women progress 2015'
p1714
sS'a8'
p1715
S'answer'
p1716
sS'safetymonth'
p1717
S'safety month'
p1718
sS'momswives'
p1719
S'moms wives'
p1720
sS'centrallocking'
p1721
S'central locking'
p1722
sS'\xe2\x80\x9cmardko'
p1723
S'mardko'
p1724
sS'prevelant'
p1725
S'prevalent'
p1726
sS'literacymatters'
p1727
S'literacy matters'
p1728
sS'aren'
p1729
S'are not'
p1730
sS'\xe2\x80\x98angry'
p1731
S'angry'
p1732
sS'city\xe2\x80\x99'
p1733
S'city'
p1734
sS'twitterchat'
p1735
S'twitter chat'
p1736
sS'rajasthan\xe2\x80\x99'
p1737
S'rajasthan'
p1738
sS'celeberate'
p1739
S'celebrate'
p1740
sS'femalegenitalmutilation'
p1741
S'female genital mutilation'
p1742
sS'changingtimes'
p1743
S'changing times'
p1744
sS'loveto'
p1745
S'love to'
p1746
sS'fifawwc'
p1747
S'fifa wc'
p1748
sS'slums\xe2\x80\x9d'
p1749
S'slums'
p1750
sS'\xe2\x80\x9cv'
p1751
S' '
p1752
sS'there\xe2\x80\x99'
p1753
S'there'
p1754
sS'parentinggonewrong'
p1755
S'parenting gone wrong'
p1756
sS'wat'
p1757
S'what'
p1758
sS'reduc'
p1759
S'reduce'
p1760
sS'honourkillings'
p1761
S'honour killings'
p1762
sS'journo'
p1763
S'journalist'
p1764
sS'eanswer'
p1765
S'answer'
p1766
sS'https'
p1767
S' '
p1768
sS'presidentialelection'
p1769
S'presidential election'
p1770
sS'hs'
p1771
S'has'
p1772
sS'rapesabuse'
p1773
S'rapes abuse'
p1774
sS'roadbuscinema'
p1775
S'road bus cinema'
p1776
sS'hw'
p1777
S'how'
p1778
sS'climateresilience'
p1779
S'climate resilience'
p1780
sS'unconventionalways'
p1781
S'unconventional always'
p1782
sS'\xe2\x80\x98love'
p1783
S'love'
p1784
sS'drivinglateatnight'
p1785
S'driving late at night'
p1786
sS'girlsrising'
p1787
S'girls rising'
p1788
sS'globalcitizen'
p1789
S'global citizen'
p1790
sS'climatechangeisreal'
p1791
S'climate change is real'
p1792
sS'hd'
p1793
S'had'
p1794
sS'sorrystate'
p1795
S'sorry state'
p1796
sS'schoolscollege'
p1797
S'school college'
p1798
sS'narrativs\xe2\x80\x9d'
p1799
S'narratives'
p1800
sS'misbehaviour'
p1801
S'misbehaviour'
p1802
sS'\xe2\x80\x9cladies'
p1803
S'ladies'
p1804
sS'tweetchat'
p1805
S'tweet chat'
p1806
sS'mythbusting'
p1807
S'myth busting'
p1808
sS'speedyjustice'
p1809
S'speedy justice'
p1810
sS'sayftycom'
p1811
S'safety com'
p1812
sS'ur'
p1813
S'your'
p1814
sS'nomoremanels'
p1815
S'no more manels'
p1816
sS'\xe2\x80\x9cselfie'
p1817
S'selfie'
p1818
sS'arnd'
p1819
S'around'
p1820
sS'teachersday'
p1821
S'teachers day'
p1822
sS'developng'
p1823
S'developing'
p1824
sS'climateaction'
p1825
S'climate action'
p1826
sS'agriculturl'
p1827
S'agricultural'
p1828
sS'labourday'
p1829
S'labour day'
p1830
sS'inducedtorture'
p1831
S'induced torture'
p1832
sS'documentaryfilm'
p1833
S'documentary film'
p1834
sS'wholistic'
p1835
S'holistic'
p1836
sS'startwithboys'
p1837
S'start with boys'
p1838
sS'lifeskills'
p1839
S'life skills'
p1840
sS'pic'
p1841
S'picture'
p1842
sS'womeninindia'
p1843
S'women in india'
p1844
sS'doesn'
p1845
S'does not'
p1846
sS'\xe2\x80\x9c'
p1847
S' '
p1848
sS'\xe2\x80\x98do\xe2\x80\x99'
p1849
S'do'
p1850
sS'childsexualabuse'
p1851
S'child sexual abuse'
p1852
sS'selfhelp'
p1853
S'self help'
p1854
sS'tax\xe2\x80\x99'
p1855
S'tax'
p1856
sS'bodyimage'
p1857
S'body image'
p1858
sS'cotgkkj6vzl4'
p1859
S' '
p1860
sS'fedral'
p1861
S'federal'
p1862
sS'won\xe2\x80\x99'
p1863
S'won'
p1864
sS'herrights'
p1865
S'her rights'
p1866
sS'grt'
p1867
S'great'
p1868
sS'carsecurity'
p1869
S'car security'
p1870
sS'grp'
p1871
S'group'
p1872
sS'genderwage'
p1873
S'gender wage'
p1874
sS'hisnamewasaylan'
p1875
S'his name was aylan'
p1876
sS'breakthelocks'
p1877
S'break the locks'
p1878
sS'nd'
p1879
S'and'
p1880
sS'makeindiasafe'
p1881
S'make india safe'
p1882
sS'womenchild'
p1883
S'women child'
p1884
sS'discriminatn'
p1885
S'discrimination'
p1886
sS'\xe2\x80\x9cadvancing'
p1887
S'advancing'
p1888
sS'sdg14'
p1889
S'sustainable development goals'
p1890
sS'sdg15'
p1891
S'sustainable development goals'
p1892
sS'sdg12'
p1893
S'sustainable development goals'
p1894
sS'productn'
p1895
S'production'
p1896
sS'sexisminourdailylife'
p1897
S'sexism in our daily life'
p1898
sS'ifeelunsafe'
p1899
S'i feel unsafe'
p1900
sS'today\xe2\x80\x99'
p1901
S'today'
p1902
sS'nt'
p1903
S'not'
p1904
sS'genderinequality'
p1905
S'gender inequality'
p1906
sS'nw'
p1907
S'now'
p1908
sS'streetharassment'
p1909
S'street harassment'
p1910
sS'womens\xe2\x80\xb2'
p1911
S'women'
p1912
sS'peopleorganisations'
p1913
S'people or organisations'
p1914
sS'reclaimingpublicspaces'
p1915
S'reclaim public spaces'
p1916
sS'holifestival'
p1917
S'holi festival'
p1918
sS'womenpower'
p1919
S'women power'
p1920
sS'a1'
p1921
S'answer'
p1922
sS'a2'
p1923
S'answer'
p1924
sS'a5'
p1925
S'answer'
p1926
sS'a4'
p1927
S'answer'
p1928
sS'tweeetchat'
p1929
S'tweet chat'
p1930
sS'syria\xe2\x80\x99'
p1931
S'syria'
p1932
sS'a9'
p1933
S'answer'
p1934
sS'publictransportation'
p1935
S'public transportation'
p1936
sS'minimumwage'
p1937
S'minimum wage'
p1938
sS'childmarriage'
p1939
S'child marriage'
p1940
sS'genderbinary'
p1941
S'gender binary'
p1942
sS'nxt'
p1943
S'next'
p1944
sS'\xe2\x80\x93'
p1945
S' '
p1946
sS'reprsentatn'
p1947
S'representation'
p1948
sS'colleagueboss'
p1949
S'colleague boss'
p1950
sS'alumnidevelopment'
p1951
S'alumni development'
p1952
sS'cityregion'
p1953
S'city region'
p1954
sS'\xe2\x80\x9d'
p1955
S' '
p1956
sS'goalsindicators'
p1957
S'goals indicators'
p1958
sS'weeklytwitter'
p1959
S'weekly twitter'
p1960
sS'4m'
p1961
S'from'
p1962
sS'work\xe2\x80\x94'
p1963
S'work'
p1964
sS'womenscricket'
p1965
S'women cricket'
p1966
sS'internationalwomensday2016'
p1967
S'international womens day 2016'
p1968
sS'womenintech'
p1969
S'women in tech'
p1970
sS'socialdaily'
p1971
S'social daily'
p1972
sS'savegirlchild'
p1973
S'save girl child'
p1974
sS'womenofsubstance'
p1975
S'women of substance'
p1976
sS'speakout'
p1977
S'speak out'
p1978
s.